; Function Attrs: mustprogress nofree norecurse nosync nounwind willreturn memory(read, inaccessiblemem: none) uwtable
define internal noundef float @"_ZNSt17_Function_handlerIFfllEZN5faiss5smawkEllPKfPlE3$_0E9_M_invokeERKSt9_Any_dataOlSA_"(ptr nocapture noundef nonnull readonly align 8 dereferenceable(16) %0, ptr nocapture noundef nonnull readonly align 8 dereferenceable(8) %1, ptr nocapture noundef nonnull readonly align 8 dereferenceable(8) %2) #9 align 2 {
  %.val = load ptr, ptr %0, align 8
  %4 = getelementptr inbounds i8, ptr %0, i64 8
  %.val3 = load ptr, ptr %4, align 8
  %.val4 = load i64, ptr %1, align 8
  %.val5 = load i64, ptr %2, align 8
  %.val.val = load ptr, ptr %.val, align 8
  %.val3.val = load i64, ptr %.val3, align 8
  %5 = mul nsw i64 %.val3.val, %.val4
  %6 = getelementptr float, ptr %.val.val, i64 %5
  %7 = getelementptr float, ptr %6, i64 %.val5
  %8 = load float, ptr %7, align 4
  ret float %8
}